target datalayout = "e-m:e-p270:32:32-p271:32:32-p272:64:64-i64:64-i128:128-f80:128-n8:16:32:64-S128"
target triple = "x86_64-pc-linux-gnu"

; Function Attrs: mustprogress nounwind uwtable
define hidden noundef zeroext i1 @_ZNK7PackSet34is_muladds2i_pack_with_pack_inputsEPK9Node_List(ptr noundef nonnull align 8 dereferenceable(64) %0, ptr noundef %1) #1 align 2 {
  %3 = alloca ptr, align 8
  %4 = alloca ptr, align 8
  %5 = alloca i8, align 1
  %6 = alloca ptr, align 8
  %7 = alloca ptr, align 8
  %8 = alloca ptr, align 8
  %9 = alloca ptr, align 8
  store ptr %0, ptr %3, align 8
  store ptr %1, ptr %4, align 8
  %10 = load ptr, ptr %3, align 8
  %11 = load ptr, ptr %4, align 8
  %12 = call noundef ptr @_ZNK7PackSet35strided_pack_input_at_index_or_nullEPK9Node_Listiii(ptr noundef nonnull align 8 dereferenceable(64) %10, ptr noundef %11, i32 noundef 1, i32 noundef 2, i32 noundef 0)
  %13 = icmp ne ptr %12, null
  %14 = zext i1 %13 to i8
  store i8 %14, ptr %5, align 1
  %15 = load ptr, ptr %4, align 8
  %16 = load i8, ptr %5, align 1
  %17 = trunc i8 %16 to i1
  %18 = select i1 %17, i32 0, i32 1
  %19 = call noundef ptr @_ZNK7PackSet35strided_pack_input_at_index_or_nullEPK9Node_Listiii(ptr noundef nonnull align 8 dereferenceable(64) %10, ptr noundef %15, i32 noundef 1, i32 noundef 2, i32 noundef %18)
  store ptr %19, ptr %6, align 8
  %20 = load ptr, ptr %4, align 8
  %21 = load i8, ptr %5, align 1
  %22 = trunc i8 %21 to i1
  %23 = select i1 %22, i32 0, i32 1
  %24 = call noundef ptr @_ZNK7PackSet35strided_pack_input_at_index_or_nullEPK9Node_Listiii(ptr noundef nonnull align 8 dereferenceable(64) %10, ptr noundef %20, i32 noundef 2, i32 noundef 2, i32 noundef %23)
  store ptr %24, ptr %7, align 8
  %25 = load ptr, ptr %4, align 8
  %26 = load i8, ptr %5, align 1
  %27 = trunc i8 %26 to i1
  %28 = select i1 %27, i32 1, i32 0
  %29 = call noundef ptr @_ZNK7PackSet35strided_pack_input_at_index_or_nullEPK9Node_Listiii(ptr noundef nonnull align 8 dereferenceable(64) %10, ptr noundef %25, i32 noundef 3, i32 noundef 2, i32 noundef %28)
  store ptr %29, ptr %8, align 8
  %30 = load ptr, ptr %4, align 8
  %31 = load i8, ptr %5, align 1
  %32 = trunc i8 %31 to i1
  %33 = select i1 %32, i32 1, i32 0
  %34 = call noundef ptr @_ZNK7PackSet35strided_pack_input_at_index_or_nullEPK9Node_Listiii(ptr noundef nonnull align 8 dereferenceable(64) %10, ptr noundef %30, i32 noundef 4, i32 noundef 2, i32 noundef %33)
  store ptr %34, ptr %9, align 8
  %35 = load ptr, ptr %6, align 8
  %36 = icmp ne ptr %35, null
  br i1 %36, label %37, label %66

37:                                               ; preds = %2
  %38 = load ptr, ptr %7, align 8
  %39 = icmp ne ptr %38, null
  br i1 %39, label %40, label %66

40:                                               ; preds = %37
  %41 = load ptr, ptr %8, align 8
  %42 = icmp ne ptr %41, null
  br i1 %42, label %43, label %66

43:                                               ; preds = %40
  %44 = load ptr, ptr %9, align 8
  %45 = icmp ne ptr %44, null
  br i1 %45, label %46, label %66

46:                                               ; preds = %43
  %47 = load ptr, ptr %6, align 8
  %48 = load ptr, ptr %8, align 8
  %49 = icmp eq ptr %47, %48
  br i1 %49, label %50, label %54

50:                                               ; preds = %46
  %51 = load ptr, ptr %7, align 8
  %52 = load ptr, ptr %9, align 8
  %53 = icmp eq ptr %51, %52
  br i1 %53, label %64, label %54

54:                                               ; preds = %50, %46
  %55 = load ptr, ptr %6, align 8
  %56 = load ptr, ptr %9, align 8
  %57 = icmp eq ptr %55, %56
  br i1 %57, label %58, label %62

58:                                               ; preds = %54
  %59 = load ptr, ptr %7, align 8
  %60 = load ptr, ptr %8, align 8
  %61 = icmp eq ptr %59, %60
  br label %62

62:                                               ; preds = %58, %54
  %63 = phi i1 [ false, %54 ], [ %61, %58 ]
  br label %64

64:                                               ; preds = %62, %50
  %65 = phi i1 [ true, %50 ], [ %63, %62 ]
  br label %66

66:                                               ; preds = %64, %43, %40, %37, %2
  %67 = phi i1 [ false, %43 ], [ false, %40 ], [ false, %37 ], [ false, %2 ], [ %65, %64 ]
  ret i1 %67
}