; Function Attrs: mustprogress nofree norecurse nosync nounwind memory(readwrite, inaccessiblemem: none) uwtable
define hidden noundef zeroext i1 @_ZNK7PackSet34is_muladds2i_pack_with_pack_inputsEPK9Node_List(ptr nocapture noundef nonnull readonly align 8 dereferenceable(64) %0, ptr nocapture noundef readonly %1) local_unnamed_addr #3 align 2 {
  %3 = tail call noundef ptr @_ZNK7PackSet35strided_pack_input_at_index_or_nullEPK9Node_Listiii(ptr noundef nonnull align 8 dereferenceable(64) %0, ptr noundef %1, i32 noundef 1, i32 noundef 2, i32 noundef 0)
  %.not = icmp eq ptr %3, null
  %4 = zext i1 %.not to i32
  %5 = tail call noundef ptr @_ZNK7PackSet35strided_pack_input_at_index_or_nullEPK9Node_Listiii(ptr noundef nonnull align 8 dereferenceable(64) %0, ptr noundef %1, i32 noundef 1, i32 noundef 2, i32 noundef %4)
  %6 = tail call noundef ptr @_ZNK7PackSet35strided_pack_input_at_index_or_nullEPK9Node_Listiii(ptr noundef nonnull align 8 dereferenceable(64) %0, ptr noundef %1, i32 noundef 2, i32 noundef 2, i32 noundef %4)
  %not..not = xor i1 %.not, true
  %7 = zext i1 %not..not to i32
  %8 = tail call noundef ptr @_ZNK7PackSet35strided_pack_input_at_index_or_nullEPK9Node_Listiii(ptr noundef nonnull align 8 dereferenceable(64) %0, ptr noundef %1, i32 noundef 3, i32 noundef 2, i32 noundef %7)
  %9 = tail call noundef ptr @_ZNK7PackSet35strided_pack_input_at_index_or_nullEPK9Node_Listiii(ptr noundef nonnull align 8 dereferenceable(64) %0, ptr noundef %1, i32 noundef 4, i32 noundef 2, i32 noundef %7)
  %10 = insertelement <4 x ptr> poison, ptr %5, i64 0
  %11 = insertelement <4 x ptr> %10, ptr %6, i64 1
  %12 = insertelement <4 x ptr> %11, ptr %8, i64 2
  %13 = insertelement <4 x ptr> %12, ptr %9, i64 3
  %14 = icmp eq <4 x ptr> %13, zeroinitializer
  %15 = bitcast <4 x i1> %14 to i4
  %16 = icmp eq i4 %15, 0
  br i1 %16, label %17, label %24

17:                                               ; preds = %2
  %18 = icmp eq ptr %5, %8
  %19 = icmp eq ptr %6, %9
  %or.cond29 = and i1 %18, %19
  br i1 %or.cond29, label %24, label %20

20:                                               ; preds = %17
  %21 = icmp eq ptr %5, %9
  %22 = icmp eq ptr %6, %8
  %23 = and i1 %22, %21
  br label %24

24:                                               ; preds = %17, %20, %2
  %25 = phi i1 [ false, %2 ], [ %23, %20 ], [ true, %17 ]
  ret i1 %25
}